target datalayout = "e-m:e-p270:32:32-p271:32:32-p272:64:64-i64:64-i128:128-f80:128-n8:16:32:64-S128"
target triple = "x86_64-pc-linux-gnu"

%struct.AVRational = type { i32, i32 }
%struct.AVDVProfile = type { i32, i32, i32, i32, i32, %struct.AVRational, i32, i32, i32, [2 x %struct.AVRational], i32, i32, ptr, i32, [3 x i32], [5 x i32], ptr }

@.str = private unnamed_addr constant [55 x i8] c"Frame size: %dx%d; pixel format: %s, framerate: %d/%d\0A\00", align 1

; Function Attrs: nounwind uwtable
define void @ff_dv_print_profiles(ptr noundef %0, i32 noundef %1) #0 {
  %3 = alloca ptr, align 8
  %4 = alloca i32, align 4
  %5 = alloca i32, align 4
  %6 = alloca ptr, align 8
  store ptr %0, ptr %3, align 8, !tbaa !4
  store i32 %1, ptr %4, align 4, !tbaa !8
  call void @llvm.lifetime.start.p0(i64 4, ptr %5) #4
  store i32 0, ptr %5, align 4, !tbaa !8
  br label %7

7:                                                ; preds = %35, %2
  %8 = load i32, ptr %5, align 4, !tbaa !8
  %9 = sext i32 %8 to i64
  %10 = icmp ult i64 %9, 10
  br i1 %10, label %11, label %38

11:                                               ; preds = %7
  call void @llvm.lifetime.start.p0(i64 8, ptr %6) #4
  %12 = load i32, ptr %5, align 4, !tbaa !8
  %13 = sext i32 %12 to i64
  %14 = getelementptr inbounds [10 x %struct.AVDVProfile], ptr @dv_profiles, i64 0, i64 %13
  store ptr %14, ptr %6, align 8, !tbaa !10
  %15 = load ptr, ptr %3, align 8, !tbaa !4
  %16 = load i32, ptr %4, align 4, !tbaa !8
  %17 = load ptr, ptr %6, align 8, !tbaa !10
  %18 = getelementptr inbounds nuw %struct.AVDVProfile, ptr %17, i32 0, i32 8
  %19 = load i32, ptr %18, align 4, !tbaa !12
  %20 = load ptr, ptr %6, align 8, !tbaa !10
  %21 = getelementptr inbounds nuw %struct.AVDVProfile, ptr %20, i32 0, i32 7
  %22 = load i32, ptr %21, align 8, !tbaa !16
  %23 = load ptr, ptr %6, align 8, !tbaa !10
  %24 = getelementptr inbounds nuw %struct.AVDVProfile, ptr %23, i32 0, i32 10
  %25 = load i32, ptr %24, align 8, !tbaa !17
  %26 = call ptr @av_get_pix_fmt_name(i32 noundef %25)
  %27 = load ptr, ptr %6, align 8, !tbaa !10
  %28 = getelementptr inbounds nuw %struct.AVDVProfile, ptr %27, i32 0, i32 5
  %29 = getelementptr inbounds nuw %struct.AVRational, ptr %28, i32 0, i32 1
  %30 = load i32, ptr %29, align 4, !tbaa !18
  %31 = load ptr, ptr %6, align 8, !tbaa !10
  %32 = getelementptr inbounds nuw %struct.AVDVProfile, ptr %31, i32 0, i32 5
  %33 = getelementptr inbounds nuw %struct.AVRational, ptr %32, i32 0, i32 0
  %34 = load i32, ptr %33, align 4, !tbaa !19
  call void (ptr, i32, ptr, ...) @av_log(ptr noundef %15, i32 noundef %16, ptr noundef @.str, i32 noundef %19, i32 noundef %22, ptr noundef %26, i32 noundef %30, i32 noundef %34)
  call void @llvm.lifetime.end.p0(i64 8, ptr %6) #4
  br label %35

35:                                               ; preds = %11
  %36 = load i32, ptr %5, align 4, !tbaa !8
  %37 = add nsw i32 %36, 1
  store i32 %37, ptr %5, align 4, !tbaa !8
  br label %7, !llvm.loop !20

38:                                               ; preds = %7
  call void @llvm.lifetime.end.p0(i64 4, ptr %5) #4
  ret void
}