; Function Attrs: nounwind uwtable
define void @ff_dv_print_profiles(ptr noundef %0, i32 noundef %1) local_unnamed_addr #0 {
  br label %3

3:                                                ; preds = %2, %3
  %indvars.iv = phi i64 [ 0, %2 ], [ %indvars.iv.next, %3 ]
  %4 = getelementptr inbounds nuw [10 x %struct.AVDVProfile], ptr @dv_profiles, i64 0, i64 %indvars.iv
  %5 = getelementptr inbounds nuw i8, ptr %4, i64 36
  %6 = load i32, ptr %5, align 4, !tbaa !4
  %7 = getelementptr inbounds nuw i8, ptr %4, i64 32
  %8 = load i32, ptr %7, align 8, !tbaa !12
  %9 = getelementptr inbounds nuw i8, ptr %4, i64 56
  %10 = load i32, ptr %9, align 8, !tbaa !13
  %11 = tail call ptr @av_get_pix_fmt_name(i32 noundef %10) #6
  %12 = getelementptr inbounds nuw i8, ptr %4, i64 20
  %13 = getelementptr inbounds nuw i8, ptr %4, i64 24
  %14 = load i32, ptr %13, align 8, !tbaa !14
  %15 = load i32, ptr %12, align 4, !tbaa !15
  tail call void (ptr, i32, ptr, ...) @av_log(ptr noundef %0, i32 noundef %1, ptr noundef nonnull @.str, i32 noundef %6, i32 noundef %8, ptr noundef %11, i32 noundef %14, i32 noundef %15) #6
  %indvars.iv.next = add nuw nsw i64 %indvars.iv, 1
  %exitcond.not = icmp eq i64 %indvars.iv.next, 10
  br i1 %exitcond.not, label %16, label %3, !llvm.loop !16

16:                                               ; preds = %3
  ret void
}